; Function Attrs: nounwind uwtable
define noundef zeroext i1 @pqParseIntParam(ptr noundef %0, ptr noundef writeonly captures(none) initializes((0, 4)) %1, ptr noundef %2, ptr noundef %3) local_unnamed_addr #0 {
  %5 = alloca ptr, align 8
  call void @llvm.lifetime.start.p0(i64 8, ptr nonnull %5) #25
  store i32 0, ptr %1, align 4
  %6 = tail call ptr @__errno_location() #28
  store i32 0, ptr %6, align 4
  %7 = call i64 @strtol(ptr noundef %0, ptr noundef nonnull %5, i32 noundef 10) #25
  %8 = load ptr, ptr %5, align 8
  %9 = icmp eq ptr %0, %8
  br i1 %9, label %.critedge, label %10

10:                                               ; preds = %4
  %11 = load i32, ptr %6, align 4
  %.not = icmp eq i32 %11, 0
  br i1 %.not, label %12, label %.critedge

12:                                               ; preds = %10
  %13 = trunc i64 %7 to i32
  %14 = add i64 %7, 2147483648
  %.not10 = icmp ult i64 %14, 4294967296
  br i1 %.not10, label %.preheader, label %.critedge

.preheader:                                       ; preds = %12
  %15 = load i8, ptr %8, align 1
  %.not1115 = icmp eq i8 %15, 0
  br i1 %.not1115, label %._crit_edge, label %.lr.ph

.lr.ph:                                           ; preds = %.preheader
  %16 = tail call ptr @__ctype_b_loc() #28
  %17 = load ptr, ptr %16, align 8
  br label %18

18:                                               ; preds = %.lr.ph, %25
  %19 = phi i8 [ %15, %.lr.ph ], [ %27, %25 ]
  %20 = phi ptr [ %8, %.lr.ph ], [ %26, %25 ]
  %21 = zext i8 %19 to i64
  %22 = getelementptr inbounds nuw i16, ptr %17, i64 %21
  %23 = load i16, ptr %22, align 2
  %24 = and i16 %23, 8192
  %.not12 = icmp eq i16 %24, 0
  br i1 %.not12, label %.critedge, label %25

25:                                               ; preds = %18
  %26 = getelementptr inbounds nuw i8, ptr %20, i64 1
  %27 = load i8, ptr %26, align 1
  %.not11 = icmp eq i8 %27, 0
  br i1 %.not11, label %._crit_edge, label %18, !llvm.loop !15

._crit_edge:                                      ; preds = %25, %.preheader
  store i32 %13, ptr %1, align 4
  br label %28

.critedge:                                        ; preds = %18, %4, %10, %12
  tail call void (ptr, ptr, ...) @libpq_append_conn_error(ptr noundef %2, ptr noundef nonnull @.str.102, ptr noundef %0, ptr noundef %3) #25
  br label %28

28:                                               ; preds = %.critedge, %._crit_edge
  %.0 = phi i1 [ false, %.critedge ], [ true, %._crit_edge ]
  call void @llvm.lifetime.end.p0(i64 8, ptr nonnull %5) #25
  ret i1 %.0
}